target datalayout = "e-m:e-p270:32:32-p271:32:32-p272:64:64-i64:64-i128:128-f80:128-n8:16:32:64-S128"
target triple = "x86_64-pc-linux-gnu"

%struct.Curl_multi = type { i32, i32, i32, %struct.Curl_llist, %struct.Curl_llist, %struct.Curl_llist, %struct.Curl_llist, i64, ptr, ptr, ptr, ptr, %struct.Curl_hash, ptr, %struct.PslCache, ptr, ptr, i64, ptr, i64, ptr, i64, %struct.Curl_hash, %struct.Curl_hash, %struct.cpool, i64, i64, ptr, ptr, i64, %struct.curltime, [2 x i32], i32, i32, i8, i8 }
%struct.Curl_llist = type { ptr, ptr, ptr, i64 }
%struct.PslCache = type { ptr, i64, i8 }
%struct.Curl_hash = type { ptr, ptr, ptr, ptr, i64, i64 }
%struct.cpool = type { %struct.Curl_hash, i64, i64, i64, %struct.curltime, %struct.Curl_llist, ptr, ptr, ptr, ptr, i8 }
%struct.curltime = type { i64, i32 }
%struct.Curl_llist_node = type { ptr, ptr, ptr, ptr }
%struct.Curl_easy = type { i32, i64, i64, ptr, %struct.Curl_llist_node, %struct.Curl_llist_node, i32, i32, %struct.Curl_message, %struct.easy_pollset, %struct.Names, ptr, ptr, ptr, ptr, %struct.SingleRequest, %struct.UserDefined, ptr, ptr, ptr, %struct.Progress, %struct.UrlState, ptr, %struct.PureInfo, %struct.curl_tlssessioninfo }
%struct.Curl_message = type { %struct.Curl_llist_node, %struct.CURLMsg }
%struct.CURLMsg = type { i32, ptr, %union.anon }
%union.anon = type { ptr }
%struct.easy_pollset = type { [5 x i32], i32, [5 x i8] }
%struct.Names = type { ptr, i32 }
%struct.SingleRequest = type <{ i64, i64, i64, i64, %struct.curltime, i32, i32, i32, i32, i64, i32, i32, i8, i8, [2 x i8], i32, ptr, ptr, %struct.bufq, i64, i64, ptr, ptr, %union.anon.0, ptr, i8, i32, [3 x i8] }>
%struct.bufq = type { ptr, ptr, ptr, ptr, i64, i64, i64, i32 }
%union.anon.0 = type { ptr }
%struct.UserDefined = type <{ ptr, ptr, ptr, ptr, ptr, ptr, i64, i64, i64, ptr, ptr, i64, ptr, ptr, ptr, ptr, ptr, ptr, ptr, ptr, ptr, ptr, ptr, ptr, ptr, ptr, ptr, ptr, ptr, ptr, ptr, ptr, ptr, ptr, ptr, i64, i64, i64, i64, i64, i64, i64, i64, i64, ptr, ptr, %struct.curl_mimepart, ptr, ptr, ptr, i64, %struct.ssl_config_data, %struct.ssl_config_data, ptr, i16, i8, i8, %struct.ssl_general_config, i32, i32, i32, [4 x i8], ptr, ptr, i64, i32, i8, i8, i8, i8, ptr, ptr, ptr, i32, [4 x i8], [74 x ptr], [8 x ptr], i32, i32, i32, [4 x i8], ptr, i32, [4 x i8], ptr, ptr, ptr, ptr, ptr, i32, i32, i32, i32, i32, i32, i32, i32, i64, ptr, ptr, i64, ptr, i64, ptr, ptr, ptr, ptr, i32, i16, i16, i16, i8, i8, i8, i8, i8, i8, i8, i8, i64, [6 x i8] }>
%struct.curl_mimepart = type { ptr, ptr, i32, i32, ptr, ptr, ptr, ptr, ptr, ptr, ptr, ptr, ptr, ptr, ptr, i64, %struct.mime_state, ptr, %struct.mime_encoder_state, i64 }
%struct.mime_state = type { i32, ptr, i64 }
%struct.mime_encoder_state = type { i64, i64, i64, [256 x i8] }
%struct.ssl_config_data = type { %struct.ssl_primary_config, i64, ptr, ptr, ptr, ptr, ptr, ptr, ptr, i16 }
%struct.ssl_primary_config = type { ptr, ptr, ptr, ptr, ptr, ptr, ptr, ptr, ptr, ptr, ptr, ptr, ptr, ptr, i8, i32, i8, i8 }
%struct.ssl_general_config = type { i32 }
%struct.Progress = type { i64, %struct.pgrs_dir, %struct.pgrs_dir, i64, i64, i32, i32, i64, i64, i64, i64, i64, i64, i64, i64, i64, %struct.curltime, %struct.curltime, %struct.curltime, %struct.curltime, %struct.curltime, [6 x i64], [6 x %struct.curltime], i32, i8 }
%struct.pgrs_dir = type { i64, i64, i64, %struct.pgrs_measure }
%struct.pgrs_measure = type { %struct.curltime, i64 }
%struct.UrlState = type { %struct.curltime, i64, i64, %struct.dynbuf, ptr, i64, ptr, i32, i32, i32, ptr, i32, i64, i32, ptr, %struct.digestdata, %struct.digestdata, %struct.auth, %struct.auth, %struct.Curl_async, ptr, i8, %struct.curltime, %struct.Curl_tree, %struct.Curl_llist, [15 x %struct.time_node], ptr, ptr, i64, i64, i64, i64, [32 x i8], i64, ptr, ptr, ptr, %struct.urlpieces, ptr, ptr, ptr, ptr, ptr, i64, %struct.dynbuf, %struct.Curl_llist, [2 x %struct.curl_header], ptr, i32, ptr, ptr, %struct.store_netrc, %struct.dynamically_allocated_data, i8, i8, i8, i8, i32 }
%struct.digestdata = type { ptr, ptr, ptr, ptr, ptr, ptr, i32, i8, i8 }
%struct.auth = type { i64, i64, i64, i8 }
%struct.Curl_async = type { ptr, ptr, ptr, ptr, i32, i32, i8 }
%struct.Curl_tree = type { ptr, ptr, ptr, ptr, %struct.curltime, ptr }
%struct.time_node = type { %struct.Curl_llist_node, %struct.curltime, i32 }
%struct.urlpieces = type { ptr, ptr, ptr, ptr, ptr, ptr, ptr, ptr }
%struct.dynbuf = type { ptr, i64, i64, i64 }
%struct.curl_header = type { ptr, ptr, i64, i64, i32, ptr }
%struct.store_netrc = type { %struct.dynbuf, ptr, i8 }
%struct.dynamically_allocated_data = type { ptr, ptr, ptr, ptr, ptr, ptr, ptr, ptr, ptr, ptr, ptr, ptr, ptr, ptr }
%struct.PureInfo = type { i32, i32, i32, i64, i64, i64, i64, i64, i64, i64, ptr, ptr, i64, i32, %struct.ip_quadruple, i32, ptr, i32, %struct.curl_certinfo, i32, i8 }
%struct.ip_quadruple = type { [46 x i8], [46 x i8], i32, i32 }
%struct.curl_certinfo = type { i32, ptr }
%struct.curl_tlssessioninfo = type { i32, ptr }

@Curl_cfree = external global ptr, align 8
@Curl_cmalloc = external global ptr, align 8
@.str.2 = private unnamed_addr constant [29 x i8] c"transfer has no multi handle\00", align 1
@.str.9 = private unnamed_addr constant [53 x i8] c"attempt to borrow xfer_sockbuf when already borrowed\00", align 1
@.str.10 = private unnamed_addr constant [45 x i8] c"could not allocate xfer_sockbuf of %zu bytes\00", align 1

; Function Attrs: nounwind uwtable
define hidden i32 @Curl_multi_xfer_sockbuf_borrow(ptr noundef %0, i64 noundef %1, ptr noundef %2) #0 {
  %4 = alloca i32, align 4
  %5 = alloca ptr, align 8
  %6 = alloca i64, align 8
  %7 = alloca ptr, align 8
  store ptr %0, ptr %5, align 8, !tbaa !43
  store i64 %1, ptr %6, align 8, !tbaa !3
  store ptr %2, ptr %7, align 8, !tbaa !251
  br label %8

8:                                                ; preds = %3
  br label %9

9:                                                ; preds = %8
  br label %10

10:                                               ; preds = %9
  br label %11

11:                                               ; preds = %10
  %12 = load ptr, ptr %7, align 8, !tbaa !251
  store ptr null, ptr %12, align 8, !tbaa !253
  %13 = load ptr, ptr %5, align 8, !tbaa !43
  %14 = getelementptr inbounds nuw %struct.Curl_easy, ptr %13, i32 0, i32 11
  %15 = load ptr, ptr %14, align 8, !tbaa !100
  %16 = icmp ne ptr %15, null
  br i1 %16, label %19, label %17

17:                                               ; preds = %11
  %18 = load ptr, ptr %5, align 8, !tbaa !43
  call void (ptr, ptr, ...) @Curl_failf(ptr noundef %18, ptr noundef @.str.2)
  store i32 2, ptr %4, align 4
  br label %104

19:                                               ; preds = %11
  %20 = load ptr, ptr %5, align 8, !tbaa !43
  %21 = getelementptr inbounds nuw %struct.Curl_easy, ptr %20, i32 0, i32 11
  %22 = load ptr, ptr %21, align 8, !tbaa !100
  %23 = getelementptr inbounds nuw %struct.Curl_multi, ptr %22, i32 0, i32 35
  %24 = load i8, ptr %23, align 1
  %25 = lshr i8 %24, 7
  %26 = zext i8 %25 to i32
  %27 = icmp ne i32 %26, 0
  br i1 %27, label %28, label %30

28:                                               ; preds = %19
  %29 = load ptr, ptr %5, align 8, !tbaa !43
  call void (ptr, ptr, ...) @Curl_failf(ptr noundef %29, ptr noundef @.str.9)
  store i32 81, ptr %4, align 4
  br label %104

30:                                               ; preds = %19
  %31 = load ptr, ptr %5, align 8, !tbaa !43
  %32 = getelementptr inbounds nuw %struct.Curl_easy, ptr %31, i32 0, i32 11
  %33 = load ptr, ptr %32, align 8, !tbaa !100
  %34 = getelementptr inbounds nuw %struct.Curl_multi, ptr %33, i32 0, i32 20
  %35 = load ptr, ptr %34, align 8, !tbaa !220
  %36 = icmp ne ptr %35, null
  br i1 %36, label %37, label %60

37:                                               ; preds = %30
  %38 = load i64, ptr %6, align 8, !tbaa !3
  %39 = load ptr, ptr %5, align 8, !tbaa !43
  %40 = getelementptr inbounds nuw %struct.Curl_easy, ptr %39, i32 0, i32 11
  %41 = load ptr, ptr %40, align 8, !tbaa !100
  %42 = getelementptr inbounds nuw %struct.Curl_multi, ptr %41, i32 0, i32 21
  %43 = load i64, ptr %42, align 8, !tbaa !221
  %44 = icmp ugt i64 %38, %43
  br i1 %44, label %45, label %60

45:                                               ; preds = %37
  %46 = load ptr, ptr @Curl_cfree, align 8, !tbaa !7
  %47 = load ptr, ptr %5, align 8, !tbaa !43
  %48 = getelementptr inbounds nuw %struct.Curl_easy, ptr %47, i32 0, i32 11
  %49 = load ptr, ptr %48, align 8, !tbaa !100
  %50 = getelementptr inbounds nuw %struct.Curl_multi, ptr %49, i32 0, i32 20
  %51 = load ptr, ptr %50, align 8, !tbaa !220
  call void %46(ptr noundef %51)
  %52 = load ptr, ptr %5, align 8, !tbaa !43
  %53 = getelementptr inbounds nuw %struct.Curl_easy, ptr %52, i32 0, i32 11
  %54 = load ptr, ptr %53, align 8, !tbaa !100
  %55 = getelementptr inbounds nuw %struct.Curl_multi, ptr %54, i32 0, i32 20
  store ptr null, ptr %55, align 8, !tbaa !220
  %56 = load ptr, ptr %5, align 8, !tbaa !43
  %57 = getelementptr inbounds nuw %struct.Curl_easy, ptr %56, i32 0, i32 11
  %58 = load ptr, ptr %57, align 8, !tbaa !100
  %59 = getelementptr inbounds nuw %struct.Curl_multi, ptr %58, i32 0, i32 21
  store i64 0, ptr %59, align 8, !tbaa !221
  br label %60

60:                                               ; preds = %45, %37, %30
  %61 = load ptr, ptr %5, align 8, !tbaa !43
  %62 = getelementptr inbounds nuw %struct.Curl_easy, ptr %61, i32 0, i32 11
  %63 = load ptr, ptr %62, align 8, !tbaa !100
  %64 = getelementptr inbounds nuw %struct.Curl_multi, ptr %63, i32 0, i32 20
  %65 = load ptr, ptr %64, align 8, !tbaa !220
  %66 = icmp ne ptr %65, null
  br i1 %66, label %90, label %67

67:                                               ; preds = %60
  %68 = load ptr, ptr @Curl_cmalloc, align 8, !tbaa !7
  %69 = load i64, ptr %6, align 8, !tbaa !3
  %70 = call ptr %68(i64 noundef %69)
  %71 = load ptr, ptr %5, align 8, !tbaa !43
  %72 = getelementptr inbounds nuw %struct.Curl_easy, ptr %71, i32 0, i32 11
  %73 = load ptr, ptr %72, align 8, !tbaa !100
  %74 = getelementptr inbounds nuw %struct.Curl_multi, ptr %73, i32 0, i32 20
  store ptr %70, ptr %74, align 8, !tbaa !220
  %75 = load ptr, ptr %5, align 8, !tbaa !43
  %76 = getelementptr inbounds nuw %struct.Curl_easy, ptr %75, i32 0, i32 11
  %77 = load ptr, ptr %76, align 8, !tbaa !100
  %78 = getelementptr inbounds nuw %struct.Curl_multi, ptr %77, i32 0, i32 20
  %79 = load ptr, ptr %78, align 8, !tbaa !220
  %80 = icmp ne ptr %79, null
  br i1 %80, label %84, label %81

81:                                               ; preds = %67
  %82 = load ptr, ptr %5, align 8, !tbaa !43
  %83 = load i64, ptr %6, align 8, !tbaa !3
  call void (ptr, ptr, ...) @Curl_failf(ptr noundef %82, ptr noundef @.str.10, i64 noundef %83)
  store i32 27, ptr %4, align 4
  br label %104

84:                                               ; preds = %67
  %85 = load i64, ptr %6, align 8, !tbaa !3
  %86 = load ptr, ptr %5, align 8, !tbaa !43
  %87 = getelementptr inbounds nuw %struct.Curl_easy, ptr %86, i32 0, i32 11
  %88 = load ptr, ptr %87, align 8, !tbaa !100
  %89 = getelementptr inbounds nuw %struct.Curl_multi, ptr %88, i32 0, i32 21
  store i64 %85, ptr %89, align 8, !tbaa !221
  br label %90

90:                                               ; preds = %84, %60
  %91 = load ptr, ptr %5, align 8, !tbaa !43
  %92 = getelementptr inbounds nuw %struct.Curl_easy, ptr %91, i32 0, i32 11
  %93 = load ptr, ptr %92, align 8, !tbaa !100
  %94 = getelementptr inbounds nuw %struct.Curl_multi, ptr %93, i32 0, i32 35
  %95 = load i8, ptr %94, align 1
  %96 = and i8 %95, 127
  %97 = or i8 %96, -128
  store i8 %97, ptr %94, align 1
  %98 = load ptr, ptr %5, align 8, !tbaa !43
  %99 = getelementptr inbounds nuw %struct.Curl_easy, ptr %98, i32 0, i32 11
  %100 = load ptr, ptr %99, align 8, !tbaa !100
  %101 = getelementptr inbounds nuw %struct.Curl_multi, ptr %100, i32 0, i32 20
  %102 = load ptr, ptr %101, align 8, !tbaa !220
  %103 = load ptr, ptr %7, align 8, !tbaa !251
  store ptr %102, ptr %103, align 8, !tbaa !253
  store i32 0, ptr %4, align 4
  br label %104

104:                                              ; preds = %90, %81, %28, %17
  %105 = load i32, ptr %4, align 4
  ret i32 %105
}