; Function Attrs: nounwind uwtable
define hidden range(i32 0, 82) i32 @Curl_multi_xfer_sockbuf_borrow(ptr noundef %0, i64 noundef %1, ptr noundef writeonly captures(none) initializes((0, 8)) %2) local_unnamed_addr #0 {
  store ptr null, ptr %2, align 8, !tbaa !179
  %4 = getelementptr inbounds nuw i8, ptr %0, i64 208
  %5 = load ptr, ptr %4, align 8, !tbaa !92
  %.not = icmp eq ptr %5, null
  br i1 %.not, label %6, label %7

6:                                                ; preds = %3
  tail call void (ptr, ptr, ...) @Curl_failf(ptr noundef nonnull %0, ptr noundef nonnull @.str.2) #19
  br label %38

7:                                                ; preds = %3
  %8 = getelementptr inbounds nuw i8, ptr %5, i64 649
  %9 = load i8, ptr %8, align 1
  %.not24 = icmp sgt i8 %9, -1
  br i1 %.not24, label %11, label %10

10:                                               ; preds = %7
  tail call void (ptr, ptr, ...) @Curl_failf(ptr noundef nonnull %0, ptr noundef nonnull @.str.9) #19
  br label %38

11:                                               ; preds = %7
  %12 = getelementptr inbounds nuw i8, ptr %5, i64 304
  %13 = load ptr, ptr %12, align 8, !tbaa !113
  %.not25 = icmp eq ptr %13, null
  br i1 %.not25, label %22, label %14

14:                                               ; preds = %11
  %15 = getelementptr inbounds nuw i8, ptr %5, i64 312
  %16 = load i64, ptr %15, align 8, !tbaa !240
  %17 = icmp ugt i64 %1, %16
  br i1 %17, label %18, label %30

18:                                               ; preds = %14
  %19 = load ptr, ptr @Curl_cfree, align 8, !tbaa !3
  tail call void %19(ptr noundef nonnull %13) #19
  %20 = load ptr, ptr %4, align 8, !tbaa !92
  %21 = getelementptr inbounds nuw i8, ptr %20, i64 304
  tail call void @llvm.memset.p0.i64(ptr noundef nonnull align 8 dereferenceable(16) %21, i8 0, i64 16, i1 false)
  br label %22

22:                                               ; preds = %18, %11
  %23 = load ptr, ptr @Curl_cmalloc, align 8, !tbaa !3
  %24 = tail call ptr %23(i64 noundef %1) #19
  %25 = load ptr, ptr %4, align 8, !tbaa !92
  %26 = getelementptr inbounds nuw i8, ptr %25, i64 304
  store ptr %24, ptr %26, align 8, !tbaa !113
  %.not27 = icmp eq ptr %24, null
  br i1 %.not27, label %27, label %28

27:                                               ; preds = %22
  tail call void (ptr, ptr, ...) @Curl_failf(ptr noundef nonnull %0, ptr noundef nonnull @.str.10, i64 noundef %1) #19
  br label %38

28:                                               ; preds = %22
  %29 = getelementptr inbounds nuw i8, ptr %25, i64 312
  store i64 %1, ptr %29, align 8, !tbaa !240
  br label %30

30:                                               ; preds = %14, %28
  %31 = phi ptr [ %25, %28 ], [ %5, %14 ]
  %32 = getelementptr inbounds nuw i8, ptr %31, i64 649
  %33 = load i8, ptr %32, align 1
  %34 = or i8 %33, -128
  store i8 %34, ptr %32, align 1
  %35 = load ptr, ptr %4, align 8, !tbaa !92
  %36 = getelementptr inbounds nuw i8, ptr %35, i64 304
  %37 = load ptr, ptr %36, align 8, !tbaa !113
  store ptr %37, ptr %2, align 8, !tbaa !179
  br label %38

38:                                               ; preds = %30, %27, %10, %6
  %.0 = phi i32 [ 81, %10 ], [ 0, %30 ], [ 27, %27 ], [ 2, %6 ]
  ret i32 %.0
}